; Function Attrs: nounwind sspstrong uwtable
define dso_local void @tcg_region_initial_alloc(ptr noundef writeonly captures(none) %0) local_unnamed_addr #1 {
  %2 = load atomic i64, ptr @qemu_mutex_lock_func monotonic, align 8
  %3 = inttoptr i64 %2 to ptr
  tail call void %3(ptr noundef nonnull @region, ptr noundef nonnull @.str, i32 noundef 401) #12
  %4 = load i64, ptr getelementptr inbounds nuw (i8, ptr @region, i64 96), align 8
  %5 = load i64, ptr getelementptr inbounds nuw (i8, ptr @region, i64 64), align 8
  %6 = icmp eq i64 %4, %5
  br i1 %6, label %7, label %tcg_region_initial_alloc__locked.exit

7:                                                ; preds = %1
  tail call void @g_assertion_message_expr(ptr noundef null, ptr noundef nonnull @.str, i32 noundef 396, ptr noundef nonnull @__func__.tcg_region_initial_alloc__locked, ptr noundef nonnull @.str.7) #11
  unreachable

tcg_region_initial_alloc__locked.exit:            ; preds = %1
  %8 = load ptr, ptr getelementptr inbounds nuw (i8, ptr @region, i64 48), align 8
  %9 = load i64, ptr getelementptr inbounds nuw (i8, ptr @region, i64 80), align 8
  %10 = mul i64 %9, %4
  %11 = getelementptr inbounds nuw i8, ptr %8, i64 %10
  %12 = load i64, ptr getelementptr inbounds nuw (i8, ptr @region, i64 72), align 8
  %13 = getelementptr inbounds nuw i8, ptr %11, i64 %12
  %14 = icmp eq i64 %4, 0
  %15 = load ptr, ptr getelementptr inbounds nuw (i8, ptr @region, i64 56), align 8
  %spec.select.i.i.i.i = select i1 %14, ptr %15, ptr %11
  %16 = add i64 %5, -1
  %17 = icmp eq i64 %4, %16
  %18 = load i64, ptr getelementptr inbounds nuw (i8, ptr @region, i64 88), align 8
  %19 = getelementptr inbounds nuw i8, ptr %8, i64 %18
  %.0.i.i.i.i = select i1 %17, ptr %19, ptr %13
  %20 = getelementptr inbounds nuw i8, ptr %0, i64 136
  store ptr %spec.select.i.i.i.i, ptr %20, align 8
  %21 = getelementptr inbounds nuw i8, ptr %0, i64 152
  store ptr %spec.select.i.i.i.i, ptr %21, align 8
  %22 = ptrtoint ptr %.0.i.i.i.i to i64
  %23 = ptrtoint ptr %spec.select.i.i.i.i to i64
  %24 = sub i64 %22, %23
  %25 = getelementptr inbounds nuw i8, ptr %0, i64 144
  store i64 %24, ptr %25, align 8
  %26 = getelementptr inbounds i8, ptr %.0.i.i.i.i, i64 -1024
  %27 = getelementptr inbounds nuw i8, ptr %0, i64 168
  store ptr %26, ptr %27, align 8
  %28 = add i64 %4, 1
  store i64 %28, ptr getelementptr inbounds nuw (i8, ptr @region, i64 96), align 8
  tail call void @qemu_mutex_unlock_impl(ptr noundef nonnull @region, ptr noundef nonnull @.str, i32 noundef 403) #12
  ret void
}